target datalayout = "e-m:e-p270:32:32-p271:32:32-p272:64:64-i64:64-i128:128-f80:128-n8:16:32:64-S128"
target triple = "x86_64-pc-linux-gnu"

%"struct.google::CheckOpString" = type { ptr }
%"class.google::LogMessageFatal" = type { %"class.google::LogMessage" }
%"class.google::LogMessage" = type { ptr, ptr, %"struct.google::LogMessageTime" }
%"struct.google::LogMessageTime" = type { %struct.tm, i64, i32, i64 }
%struct.tm = type { i32, i32, i32, i32, i32, i32, i32, i32, i32, i64, ptr }
%"class.ceres::internal::CudaVector" = type { i32, ptr, %"class.ceres::internal::CudaBuffer", ptr }
%"class.ceres::internal::CudaBuffer" = type { ptr, i64, ptr }
%"class.ceres::internal::ContextImpl" = type <{ %"class.ceres::Context", %"class.ceres::internal::ThreadPool", ptr, ptr, [2 x ptr], ptr, i8, [3 x i8], i32, %struct.cudaDeviceProp, i8, [3 x i8], i32, i32, [4 x i8] }>
%"class.ceres::Context" = type { ptr }
%"class.ceres::internal::ThreadPool" = type { %"class.ceres::internal::ConcurrentQueue", %"class.std::vector", %"class.std::mutex" }
%"class.ceres::internal::ConcurrentQueue" = type <{ %"class.std::mutex", %"class.std::condition_variable", %"class.std::queue", i8, [7 x i8] }>
%"class.std::condition_variable" = type { %"class.std::__condvar" }
%"class.std::__condvar" = type { %union.pthread_cond_t }
%union.pthread_cond_t = type { %struct.__pthread_cond_s }
%struct.__pthread_cond_s = type { %union.__atomic_wide_counter, %union.__atomic_wide_counter, [2 x i32], [2 x i32], i32, i32, [2 x i32] }
%union.__atomic_wide_counter = type { i64 }
%"class.std::queue" = type { %"class.std::deque" }
%"class.std::deque" = type { %"class.std::_Deque_base" }
%"class.std::_Deque_base" = type { %"struct.std::_Deque_base<std::function<void ()>, std::allocator<std::function<void ()>>>::_Deque_impl" }
%"struct.std::_Deque_base<std::function<void ()>, std::allocator<std::function<void ()>>>::_Deque_impl" = type { %"struct.std::_Deque_base<std::function<void ()>, std::allocator<std::function<void ()>>>::_Deque_impl_data" }
%"struct.std::_Deque_base<std::function<void ()>, std::allocator<std::function<void ()>>>::_Deque_impl_data" = type { ptr, i64, %"struct.std::_Deque_iterator", %"struct.std::_Deque_iterator" }
%"struct.std::_Deque_iterator" = type { ptr, ptr, ptr, ptr }
%"class.std::vector" = type { %"struct.std::_Vector_base" }
%"struct.std::_Vector_base" = type { %"struct.std::_Vector_base<std::thread, std::allocator<std::thread>>::_Vector_impl" }
%"struct.std::_Vector_base<std::thread, std::allocator<std::thread>>::_Vector_impl" = type { %"struct.std::_Vector_base<std::thread, std::allocator<std::thread>>::_Vector_impl_data" }
%"struct.std::_Vector_base<std::thread, std::allocator<std::thread>>::_Vector_impl_data" = type { ptr, ptr, ptr }
%"class.std::mutex" = type { %"class.std::__mutex_base" }
%"class.std::__mutex_base" = type { %union.pthread_mutex_t }
%union.pthread_mutex_t = type { %struct.__pthread_mutex_s }
%struct.__pthread_mutex_s = type { i32, i32, i32, i32, i32, i16, i16, %struct.__pthread_internal_list }
%struct.__pthread_internal_list = type { ptr, ptr }
%struct.cudaDeviceProp = type { [256 x i8], %struct.CUuuid_st, [8 x i8], i32, i64, i64, i32, i32, i64, i32, [3 x i32], [3 x i32], i32, i64, i32, i32, i64, i64, i32, i32, i32, i32, i32, i32, i32, i32, i32, [2 x i32], [2 x i32], [3 x i32], [2 x i32], [3 x i32], [3 x i32], i32, [2 x i32], [3 x i32], [2 x i32], i32, [2 x i32], [3 x i32], [2 x i32], [3 x i32], i32, [2 x i32], i64, i32, i32, i32, i32, i32, i32, i32, i32, i32, i32, i32, i32, i32, i32, i32, i32, i64, i32, i32, i32, i32, i32, i32, i32, i32, i32, i32, i32, i32, i64, i32, i32, i32, i32, i64 }
%struct.CUuuid_st = type { [16 x i8] }
%"class.google::base::CheckOpMessageBuilder" = type { ptr }

@.str.3 = private unnamed_addr constant [126 x i8] c"generated/home/dtcxzyw/WorkSpace/Projects/compilers/llvm-opt-benchmark/bench/ceres/ceres-solver/internal/ceres/cuda_vector.cc\00", align 1
@.str.7 = private unnamed_addr constant [115 x i8] c"cublasDdot_v2(context_->cublas_handle_, num_rows_, data_.data(), 1, x.data(), 1, &result) == CUBLAS_STATUS_SUCCESS\00", align 1
@.str.8 = private unnamed_addr constant [26 x i8] c"CuBLAS cublasDdot failed.\00", align 1

; Function Attrs: mustprogress uwtable
define linkonce_odr hidden void @_ZN6google22MakeCheckOpValueStringI14cublasStatus_tEEvPSoRKT_(ptr noundef %0, ptr noundef nonnull align 4 dereferenceable(4) %1) #2 comdat {
  %3 = alloca ptr, align 8
  %4 = alloca ptr, align 8
  store ptr %0, ptr %3, align 8
  store ptr %1, ptr %4, align 8
  %5 = load ptr, ptr %3, align 8
  %6 = load ptr, ptr %4, align 8
  %7 = load i32, ptr %6, align 4
  %8 = call noundef nonnull align 8 dereferenceable(8) ptr @_ZNSolsEi(ptr noundef nonnull align 8 dereferenceable(8) %5, i32 noundef %7)
  ret void
}

; Function Attrs: mustprogress nounwind uwtable
define linkonce_odr hidden noundef ptr @_ZN6google4base21CheckOpMessageBuilder7ForVar1Ev(ptr noundef nonnull align 8 dereferenceable(8) %0) #1 comdat align 2 {
  %2 = alloca ptr, align 8
  store ptr %0, ptr %2, align 8
  %3 = load ptr, ptr %2, align 8
  %4 = getelementptr inbounds %"class.google::base::CheckOpMessageBuilder", ptr %3, i32 0, i32 0
  %5 = load ptr, ptr %4, align 8
  ret ptr %5
}

; Function Attrs: mustprogress uwtable
define linkonce_odr hidden noundef ptr @_ZN6google17MakeCheckOpStringI14cublasStatus_tS1_EEPNSt7__cxx1112basic_stringIcSt11char_traitsIcESaIcEEERKT_RKT0_PKc(ptr noundef nonnull align 4 dereferenceable(4) %0, ptr noundef nonnull align 4 dereferenceable(4) %1, ptr noundef %2) #2 comdat personality ptr @__gxx_personality_v0 {
  %4 = alloca ptr, align 8
  %5 = alloca ptr, align 8
  %6 = alloca ptr, align 8
  %7 = alloca %"class.google::base::CheckOpMessageBuilder", align 8
  %8 = alloca ptr, align 8
  %9 = alloca i32, align 4
  store ptr %0, ptr %4, align 8
  store ptr %1, ptr %5, align 8
  store ptr %2, ptr %6, align 8
  %10 = load ptr, ptr %6, align 8
  call void @_ZN6google4base21CheckOpMessageBuilderC1EPKc(ptr noundef nonnull align 8 dereferenceable(8) %7, ptr noundef %10)
  %11 = call noundef ptr @_ZN6google4base21CheckOpMessageBuilder7ForVar1Ev(ptr noundef nonnull align 8 dereferenceable(8) %7)
  %12 = load ptr, ptr %4, align 8
  invoke void @_ZN6google22MakeCheckOpValueStringI14cublasStatus_tEEvPSoRKT_(ptr noundef %11, ptr noundef nonnull align 4 dereferenceable(4) %12)
          to label %13 unwind label %20

13:                                               ; preds = %3
  %14 = invoke noundef ptr @_ZN6google4base21CheckOpMessageBuilder7ForVar2Ev(ptr noundef nonnull align 8 dereferenceable(8) %7)
          to label %15 unwind label %20

15:                                               ; preds = %13
  %16 = load ptr, ptr %5, align 8
  invoke void @_ZN6google22MakeCheckOpValueStringI14cublasStatus_tEEvPSoRKT_(ptr noundef %14, ptr noundef nonnull align 4 dereferenceable(4) %16)
          to label %17 unwind label %20

17:                                               ; preds = %15
  %18 = invoke noundef ptr @_ZN6google4base21CheckOpMessageBuilder9NewStringB5cxx11Ev(ptr noundef nonnull align 8 dereferenceable(8) %7)
          to label %19 unwind label %20

19:                                               ; preds = %17
  call void @_ZN6google4base21CheckOpMessageBuilderD1Ev(ptr noundef nonnull align 8 dereferenceable(8) %7) #9
  ret ptr %18

20:                                               ; preds = %17, %15, %13, %3
  %21 = landingpad { ptr, i32 }
          cleanup
  %22 = extractvalue { ptr, i32 } %21, 0
  store ptr %22, ptr %8, align 8
  %23 = extractvalue { ptr, i32 } %21, 1
  store i32 %23, ptr %9, align 4
  call void @_ZN6google4base21CheckOpMessageBuilderD1Ev(ptr noundef nonnull align 8 dereferenceable(8) %7) #9
  br label %24

24:                                               ; preds = %20
  %25 = load ptr, ptr %8, align 8
  %26 = load i32, ptr %9, align 4
  %27 = insertvalue { ptr, i32 } poison, ptr %25, 0
  %28 = insertvalue { ptr, i32 } %27, i32 %26, 1
  resume { ptr, i32 } %28
}

; Function Attrs: mustprogress nounwind uwtable
define linkonce_odr hidden noundef zeroext i1 @_ZNK6google13CheckOpStringcvbEv(ptr noundef nonnull align 8 dereferenceable(8) %0) #1 comdat align 2 {
  %2 = alloca ptr, align 8
  store ptr %0, ptr %2, align 8
  %3 = load ptr, ptr %2, align 8
  %4 = getelementptr inbounds %"struct.google::CheckOpString", ptr %3, i32 0, i32 0
  %5 = load ptr, ptr %4, align 8
  %6 = icmp ne ptr %5, null
  ret i1 %6
}

; Function Attrs: mustprogress nounwind uwtable
define linkonce_odr hidden void @_ZN6google13CheckOpStringC2EPNSt7__cxx1112basic_stringIcSt11char_traitsIcESaIcEEE(ptr noundef nonnull align 8 dereferenceable(8) %0, ptr noundef %1) unnamed_addr #1 comdat align 2 {
  %3 = alloca ptr, align 8
  %4 = alloca ptr, align 8
  store ptr %0, ptr %3, align 8
  store ptr %1, ptr %4, align 8
  %5 = load ptr, ptr %3, align 8
  %6 = getelementptr inbounds %"struct.google::CheckOpString", ptr %5, i32 0, i32 0
  %7 = load ptr, ptr %4, align 8
  store ptr %7, ptr %6, align 8
  ret void
}

; Function Attrs: mustprogress uwtable
define linkonce_odr hidden noundef ptr @_ZN6google12Check_EQImplI14cublasStatus_tS1_EEPNSt7__cxx1112basic_stringIcSt11char_traitsIcESaIcEEERKT_RKT0_PKc(ptr noundef nonnull align 4 dereferenceable(4) %0, ptr noundef nonnull align 4 dereferenceable(4) %1, ptr noundef %2) #2 comdat {
  %4 = alloca ptr, align 8
  %5 = alloca ptr, align 8
  %6 = alloca ptr, align 8
  %7 = alloca ptr, align 8
  store ptr %0, ptr %5, align 8
  store ptr %1, ptr %6, align 8
  store ptr %2, ptr %7, align 8
  %8 = load ptr, ptr %5, align 8
  %9 = load i32, ptr %8, align 4
  %10 = load ptr, ptr %6, align 8
  %11 = load i32, ptr %10, align 4
  %12 = icmp eq i32 %9, %11
  %13 = xor i1 %12, true
  %14 = xor i1 %13, true
  br i1 %14, label %15, label %16

15:                                               ; preds = %3
  store ptr null, ptr %4, align 8
  br label %21

16:                                               ; preds = %3
  %17 = load ptr, ptr %5, align 8
  %18 = load ptr, ptr %6, align 8
  %19 = load ptr, ptr %7, align 8
  %20 = call noundef ptr @_ZN6google17MakeCheckOpStringI14cublasStatus_tS1_EEPNSt7__cxx1112basic_stringIcSt11char_traitsIcESaIcEEERKT_RKT0_PKc(ptr noundef nonnull align 4 dereferenceable(4) %17, ptr noundef nonnull align 4 dereferenceable(4) %18, ptr noundef %19)
  store ptr %20, ptr %4, align 8
  br label %21

21:                                               ; preds = %16, %15
  %22 = load ptr, ptr %4, align 8
  ret ptr %22
}

; Function Attrs: mustprogress nounwind uwtable
define linkonce_odr hidden noundef nonnull align 4 dereferenceable(4) ptr @_ZN6google21GetReferenceableValueI14cublasStatus_tEERKT_S4_(ptr noundef nonnull align 4 dereferenceable(4) %0) #1 comdat {
  %2 = alloca ptr, align 8
  store ptr %0, ptr %2, align 8
  %3 = load ptr, ptr %2, align 8
  ret ptr %3
}

; Function Attrs: mustprogress uwtable
define linkonce_odr hidden noundef ptr @_ZNK5ceres8internal10CudaVector4dataEv(ptr noundef nonnull align 8 dereferenceable(48) %0) #2 comdat align 2 {
  %2 = alloca ptr, align 8
  store ptr %0, ptr %2, align 8
  %3 = load ptr, ptr %2, align 8
  %4 = getelementptr inbounds %"class.ceres::internal::CudaVector", ptr %3, i32 0, i32 2
  %5 = call noundef ptr @_ZNK5ceres8internal10CudaBufferIdE4dataEv(ptr noundef nonnull align 8 dereferenceable(24) %4)
  ret ptr %5
}

; Function Attrs: mustprogress nounwind uwtable
define linkonce_odr hidden noundef ptr @_ZNK5ceres8internal10CudaBufferIdE4dataEv(ptr noundef nonnull align 8 dereferenceable(24) %0) #1 comdat align 2 {
  %2 = alloca ptr, align 8
  store ptr %0, ptr %2, align 8
  %3 = load ptr, ptr %2, align 8
  %4 = getelementptr inbounds %"class.ceres::internal::CudaBuffer", ptr %3, i32 0, i32 0
  %5 = load ptr, ptr %4, align 8
  ret ptr %5
}

; Function Attrs: mustprogress uwtable
define hidden noundef double @_ZNK5ceres8internal10CudaVector3DotERKS1_(ptr noundef nonnull align 8 dereferenceable(48) %0, ptr noundef nonnull align 8 dereferenceable(48) %1) #2 align 2 personality ptr @__gxx_personality_v0 {
  %3 = alloca ptr, align 8
  %4 = alloca ptr, align 8
  %5 = alloca double, align 8
  %6 = alloca %"struct.google::CheckOpString", align 8
  %7 = alloca i32, align 4
  %8 = alloca i32, align 4
  %9 = alloca %"class.google::LogMessageFatal", align 8
  %10 = alloca ptr, align 8
  %11 = alloca i32, align 4
  store ptr %0, ptr %3, align 8
  store ptr %1, ptr %4, align 8
  %12 = load ptr, ptr %3, align 8
  store double 0.000000e+00, ptr %5, align 8
  br label %13

13:                                               ; preds = %2
  %14 = getelementptr inbounds %"class.ceres::internal::CudaVector", ptr %12, i32 0, i32 1
  %15 = load ptr, ptr %14, align 8
  %16 = getelementptr inbounds %"class.ceres::internal::ContextImpl", ptr %15, i32 0, i32 3
  %17 = load ptr, ptr %16, align 8
  %18 = getelementptr inbounds %"class.ceres::internal::CudaVector", ptr %12, i32 0, i32 0
  %19 = load i32, ptr %18, align 8
  %20 = getelementptr inbounds %"class.ceres::internal::CudaVector", ptr %12, i32 0, i32 2
  %21 = call noundef ptr @_ZNK5ceres8internal10CudaBufferIdE4dataEv(ptr noundef nonnull align 8 dereferenceable(24) %20)
  %22 = load ptr, ptr %4, align 8
  %23 = call noundef ptr @_ZNK5ceres8internal10CudaVector4dataEv(ptr noundef nonnull align 8 dereferenceable(48) %22)
  %24 = call i32 @cublasDdot_v2(ptr noundef %17, i32 noundef %19, ptr noundef %21, i32 noundef 1, ptr noundef %23, i32 noundef 1, ptr noundef %5)
  store i32 %24, ptr %7, align 4
  %25 = call noundef nonnull align 4 dereferenceable(4) ptr @_ZN6google21GetReferenceableValueI14cublasStatus_tEERKT_S4_(ptr noundef nonnull align 4 dereferenceable(4) %7)
  store i32 0, ptr %8, align 4
  %26 = call noundef nonnull align 4 dereferenceable(4) ptr @_ZN6google21GetReferenceableValueI14cublasStatus_tEERKT_S4_(ptr noundef nonnull align 4 dereferenceable(4) %8)
  %27 = call noundef ptr @_ZN6google12Check_EQImplI14cublasStatus_tS1_EEPNSt7__cxx1112basic_stringIcSt11char_traitsIcESaIcEEERKT_RKT0_PKc(ptr noundef nonnull align 4 dereferenceable(4) %25, ptr noundef nonnull align 4 dereferenceable(4) %26, ptr noundef @.str.7)
  call void @_ZN6google13CheckOpStringC2EPNSt7__cxx1112basic_stringIcSt11char_traitsIcESaIcEEE(ptr noundef nonnull align 8 dereferenceable(8) %6, ptr noundef %27)
  %28 = call noundef zeroext i1 @_ZNK6google13CheckOpStringcvbEv(ptr noundef nonnull align 8 dereferenceable(8) %6)
  br i1 %28, label %29, label %39

29:                                               ; preds = %13
  call void @_ZN6google15LogMessageFatalC1EPKciRKNS_13CheckOpStringE(ptr noundef nonnull align 8 dereferenceable(96) %9, ptr noundef @.str.3, i32 noundef 103, ptr noundef nonnull align 8 dereferenceable(8) %6)
  %30 = invoke noundef nonnull align 8 dereferenceable(8) ptr @_ZN6google10LogMessage6streamEv(ptr noundef nonnull align 8 dereferenceable(96) %9)
          to label %31 unwind label %34

31:                                               ; preds = %29
  %32 = invoke noundef nonnull align 8 dereferenceable(8) ptr @_ZStlsISt11char_traitsIcEERSt13basic_ostreamIcT_ES5_PKc(ptr noundef nonnull align 8 dereferenceable(8) %30, ptr noundef @.str.8)
          to label %33 unwind label %34

33:                                               ; preds = %31
  call void @_ZN6google15LogMessageFatalD1Ev(ptr noundef nonnull align 8 dereferenceable(96) %9) #8
  unreachable

34:                                               ; preds = %31, %29
  %35 = landingpad { ptr, i32 }
          cleanup
  %36 = extractvalue { ptr, i32 } %35, 0
  store ptr %36, ptr %10, align 8
  %37 = extractvalue { ptr, i32 } %35, 1
  store i32 %37, ptr %11, align 4
  call void @_ZN6google15LogMessageFatalD1Ev(ptr noundef nonnull align 8 dereferenceable(96) %9) #8
  unreachable

38:                                               ; No predecessors!
  br label %41

39:                                               ; preds = %13
  %40 = load double, ptr %5, align 8
  ret double %40

41:                                               ; preds = %38
  %42 = load ptr, ptr %10, align 8
  %43 = load i32, ptr %11, align 4
  %44 = insertvalue { ptr, i32 } poison, ptr %42, 0
  %45 = insertvalue { ptr, i32 } %44, i32 %43, 1
  resume { ptr, i32 } %45
}